target datalayout = "e-m:e-p270:32:32-p271:32:32-p272:64:64-i64:64-f80:128-n8:16:32:64-S128"
target triple = "x86_64-pc-linux-gnu"

@.str = private unnamed_addr constant [3 x i8] c"%d\00", align 1
@.str.1 = private unnamed_addr constant [7 x i8] c"%d%d%d\00", align 1
@x = common dso_local global [100000 x i32] zeroinitializer, align 16
@y = common dso_local global [100000 x i32] zeroinitializer, align 16
@z = common dso_local global [100000 x i32] zeroinitializer, align 16
@s = common dso_local global [100000 x i32] zeroinitializer, align 16
@b = common dso_local global [100000 x i32] zeroinitializer, align 16
@.str.2 = private unnamed_addr constant [7 x i8] c"%d %d\0A\00", align 1

; Function Attrs: noinline nounwind uwtable
define dso_local i32 @main(i32 %0, i8** %1) #0 {
  %3 = alloca i32, align 4
  %4 = alloca i32, align 4
  %5 = alloca i8**, align 8
  %6 = alloca i32, align 4
  %7 = alloca i32, align 4
  %8 = alloca i32, align 4
  %9 = alloca i32, align 4
  %10 = alloca i32, align 4
  %11 = alloca i32, align 4
  store i32 0, i32* %3, align 4
  store i32 %0, i32* %4, align 4
  store i8** %1, i8*** %5, align 8
  %12 = call i32 (i8*, ...) @__isoc99_scanf(i8* getelementptr inbounds ([3 x i8], [3 x i8]* @.str, i64 0, i64 0), i32* %6)
  store i32 1, i32* %7, align 4
  br label %13

13:                                               ; preds = %47, %2
  %14 = load i32, i32* %7, align 4
  %15 = load i32, i32* %6, align 4
  %16 = icmp sle i32 %14, %15
  br i1 %16, label %17, label %50

17:                                               ; preds = %13
  %18 = load i32, i32* %7, align 4
  %19 = sext i32 %18 to i64
  %20 = getelementptr inbounds [100000 x i32], [100000 x i32]* @x, i64 0, i64 %19
  %21 = load i32, i32* %7, align 4
  %22 = sext i32 %21 to i64
  %23 = getelementptr inbounds [100000 x i32], [100000 x i32]* @y, i64 0, i64 %22
  %24 = load i32, i32* %7, align 4
  %25 = sext i32 %24 to i64
  %26 = getelementptr inbounds [100000 x i32], [100000 x i32]* @z, i64 0, i64 %25
  %27 = call i32 (i8*, ...) @__isoc99_scanf(i8* getelementptr inbounds ([7 x i8], [7 x i8]* @.str.1, i64 0, i64 0), i32* %20, i32* %23, i32* %26)
  %28 = load i32, i32* %7, align 4
  %29 = sext i32 %28 to i64
  %30 = getelementptr inbounds [100000 x i32], [100000 x i32]* @y, i64 0, i64 %29
  %31 = load i32, i32* %30, align 4
  %32 = load i32, i32* %7, align 4
  %33 = sext i32 %32 to i64
  %34 = getelementptr inbounds [100000 x i32], [100000 x i32]* @z, i64 0, i64 %33
  %35 = load i32, i32* %34, align 4
  %36 = add nsw i32 %31, %35
  %37 = load i32, i32* %7, align 4
  %38 = sext i32 %37 to i64
  %39 = getelementptr inbounds [100000 x i32], [100000 x i32]* @s, i64 0, i64 %38
  store i32 %36, i32* %39, align 4
  %40 = load i32, i32* %7, align 4
  %41 = sext i32 %40 to i64
  %42 = getelementptr inbounds [100000 x i32], [100000 x i32]* @s, i64 0, i64 %41
  %43 = load i32, i32* %42, align 4
  %44 = load i32, i32* %7, align 4
  %45 = sext i32 %44 to i64
  %46 = getelementptr inbounds [100000 x i32], [100000 x i32]* @b, i64 0, i64 %45
  store i32 %43, i32* %46, align 4
  br label %47

47:                                               ; preds = %17
  %48 = load i32, i32* %7, align 4
  %49 = add nsw i32 %48, 1
  store i32 %49, i32* %7, align 4
  br label %13

50:                                               ; preds = %13
  store i32 1, i32* %7, align 4
  br label %51

51:                                               ; preds = %92, %50
  %52 = load i32, i32* %7, align 4
  %53 = icmp slt i32 %52, 4
  br i1 %53, label %54, label %95

54:                                               ; preds = %51
  %55 = load i32, i32* %7, align 4
  %56 = add nsw i32 %55, 1
  store i32 %56, i32* %8, align 4
  br label %57

57:                                               ; preds = %88, %54
  %58 = load i32, i32* %8, align 4
  %59 = load i32, i32* %6, align 4
  %60 = icmp sle i32 %58, %59
  br i1 %60, label %61, label %91

61:                                               ; preds = %57
  %62 = load i32, i32* %7, align 4
  %63 = sext i32 %62 to i64
  %64 = getelementptr inbounds [100000 x i32], [100000 x i32]* @s, i64 0, i64 %63
  %65 = load i32, i32* %64, align 4
  %66 = load i32, i32* %8, align 4
  %67 = sext i32 %66 to i64
  %68 = getelementptr inbounds [100000 x i32], [100000 x i32]* @s, i64 0, i64 %67
  %69 = load i32, i32* %68, align 4
  %70 = icmp slt i32 %65, %69
  br i1 %70, label %71, label %87

71:                                               ; preds = %61
  %72 = load i32, i32* %7, align 4
  %73 = sext i32 %72 to i64
  %74 = getelementptr inbounds [100000 x i32], [100000 x i32]* @s, i64 0, i64 %73
  %75 = load i32, i32* %74, align 4
  store i32 %75, i32* %9, align 4
  %76 = load i32, i32* %8, align 4
  %77 = sext i32 %76 to i64
  %78 = getelementptr inbounds [100000 x i32], [100000 x i32]* @s, i64 0, i64 %77
  %79 = load i32, i32* %78, align 4
  %80 = load i32, i32* %7, align 4
  %81 = sext i32 %80 to i64
  %82 = getelementptr inbounds [100000 x i32], [100000 x i32]* @s, i64 0, i64 %81
  store i32 %79, i32* %82, align 4
  %83 = load i32, i32* %9, align 4
  %84 = load i32, i32* %8, align 4
  %85 = sext i32 %84 to i64
  %86 = getelementptr inbounds [100000 x i32], [100000 x i32]* @s, i64 0, i64 %85
  store i32 %83, i32* %86, align 4
  br label %87

87:                                               ; preds = %71, %61
  br label %88

88:                                               ; preds = %87
  %89 = load i32, i32* %8, align 4
  %90 = add nsw i32 %89, 1
  store i32 %90, i32* %8, align 4
  br label %57

91:                                               ; preds = %57
  br label %92

92:                                               ; preds = %91
  %93 = load i32, i32* %7, align 4
  %94 = add nsw i32 %93, 1
  store i32 %94, i32* %7, align 4
  br label %51

95:                                               ; preds = %51
  store i32 1, i32* %7, align 4
  br label %96

96:                                               ; preds = %119, %95
  %97 = load i32, i32* %7, align 4
  %98 = load i32, i32* %6, align 4
  %99 = icmp sle i32 %97, %98
  br i1 %99, label %100, label %122

100:                                              ; preds = %96
  %101 = load i32, i32* getelementptr inbounds ([100000 x i32], [100000 x i32]* @s, i64 0, i64 1), align 4
  %102 = load i32, i32* %7, align 4
  %103 = sext i32 %102 to i64
  %104 = getelementptr inbounds [100000 x i32], [100000 x i32]* @b, i64 0, i64 %103
  %105 = load i32, i32* %104, align 4
  %106 = icmp eq i32 %101, %105
  br i1 %106, label %107, label %118

107:                                              ; preds = %100
  %108 = load i32, i32* %7, align 4
  store i32 %108, i32* %10, align 4
  %109 = load i32, i32* %7, align 4
  %110 = sext i32 %109 to i64
  %111 = getelementptr inbounds [100000 x i32], [100000 x i32]* @x, i64 0, i64 %110
  %112 = load i32, i32* %111, align 4
  %113 = load i32, i32* %7, align 4
  %114 = sext i32 %113 to i64
  %115 = getelementptr inbounds [100000 x i32], [100000 x i32]* @b, i64 0, i64 %114
  %116 = load i32, i32* %115, align 4
  %117 = call i32 (i8*, ...) @printf(i8* getelementptr inbounds ([7 x i8], [7 x i8]* @.str.2, i64 0, i64 0), i32 %112, i32 %116)
  br label %122

118:                                              ; preds = %100
  br label %119

119:                                              ; preds = %118
  %120 = load i32, i32* %7, align 4
  %121 = add nsw i32 %120, 1
  store i32 %121, i32* %7, align 4
  br label %96

122:                                              ; preds = %107, %96
  store i32 1, i32* %7, align 4
  br label %123

123:                                              ; preds = %150, %122
  %124 = load i32, i32* %7, align 4
  %125 = load i32, i32* %6, align 4
  %126 = icmp sle i32 %124, %125
  br i1 %126, label %127, label %153

127:                                              ; preds = %123
  %128 = load i32, i32* getelementptr inbounds ([100000 x i32], [100000 x i32]* @s, i64 0, i64 2), align 8
  %129 = load i32, i32* %7, align 4
  %130 = sext i32 %129 to i64
  %131 = getelementptr inbounds [100000 x i32], [100000 x i32]* @b, i64 0, i64 %130
  %132 = load i32, i32* %131, align 4
  %133 = icmp eq i32 %128, %132
  br i1 %133, label %134, label %149

134:                                              ; preds = %127
  %135 = load i32, i32* %7, align 4
  %136 = load i32, i32* %10, align 4
  %137 = icmp ne i32 %135, %136
  br i1 %137, label %138, label %149

138:                                              ; preds = %134
  %139 = load i32, i32* %7, align 4
  store i32 %139, i32* %11, align 4
  %140 = load i32, i32* %7, align 4
  %141 = sext i32 %140 to i64
  %142 = getelementptr inbounds [100000 x i32], [100000 x i32]* @x, i64 0, i64 %141
  %143 = load i32, i32* %142, align 4
  %144 = load i32, i32* %7, align 4
  %145 = sext i32 %144 to i64
  %146 = getelementptr inbounds [100000 x i32], [100000 x i32]* @b, i64 0, i64 %145
  %147 = load i32, i32* %146, align 4
  %148 = call i32 (i8*, ...) @printf(i8* getelementptr inbounds ([7 x i8], [7 x i8]* @.str.2, i64 0, i64 0), i32 %143, i32 %147)
  br label %153

149:                                              ; preds = %134, %127
  br label %150

150:                                              ; preds = %149
  %151 = load i32, i32* %7, align 4
  %152 = add nsw i32 %151, 1
  store i32 %152, i32* %7, align 4
  br label %123

153:                                              ; preds = %138, %123
  store i32 1, i32* %7, align 4
  br label %154

154:                                              ; preds = %184, %153
  %155 = load i32, i32* %7, align 4
  %156 = load i32, i32* %6, align 4
  %157 = icmp sle i32 %155, %156
  br i1 %157, label %158, label %187

158:                                              ; preds = %154
  %159 = load i32, i32* getelementptr inbounds ([100000 x i32], [100000 x i32]* @s, i64 0, i64 3), align 4
  %160 = load i32, i32* %7, align 4
  %161 = sext i32 %160 to i64
  %162 = getelementptr inbounds [100000 x i32], [100000 x i32]* @b, i64 0, i64 %161
  %163 = load i32, i32* %162, align 4
  %164 = icmp eq i32 %159, %163
  br i1 %164, label %165, label %183

165:                                              ; preds = %158
  %166 = load i32, i32* %7, align 4
  %167 = load i32, i32* %10, align 4
  %168 = icmp ne i32 %166, %167
  br i1 %168, label %169, label %183

169:                                              ; preds = %165
  %170 = load i32, i32* %7, align 4
  %171 = load i32, i32* %11, align 4
  %172 = icmp ne i32 %170, %171
  br i1 %172, label %173, label %183

173:                                              ; preds = %169
  %174 = load i32, i32* %7, align 4
  %175 = sext i32 %174 to i64
  %176 = getelementptr inbounds [100000 x i32], [100000 x i32]* @x, i64 0, i64 %175
  %177 = load i32, i32* %176, align 4
  %178 = load i32, i32* %7, align 4
  %179 = sext i32 %178 to i64
  %180 = getelementptr inbounds [100000 x i32], [100000 x i32]* @b, i64 0, i64 %179
  %181 = load i32, i32* %180, align 4
  %182 = call i32 (i8*, ...) @printf(i8* getelementptr inbounds ([7 x i8], [7 x i8]* @.str.2, i64 0, i64 0), i32 %177, i32 %181)
  br label %187

183:                                              ; preds = %169, %165, %158
  br label %184

184:                                              ; preds = %183
  %185 = load i32, i32* %7, align 4
  %186 = add nsw i32 %185, 1
  store i32 %186, i32* %7, align 4
  br label %154

187:                                              ; preds = %173, %154
  ret i32 0
}